	PALX 240	02/19/77  14:33:23	PAGE 1
	GLPT;ECHO 8	PAGE 1 	

		000000			R0=%0
		000001			R1=%1
		000002			R2=%2
		000003			R3=%3
		000004			R4=%4
		000005			R5=%5
		000006			SP=%6
		000007			PC=%7
					
		175610			TKS=175610
		175612			TKB=TKS+2
		177564			TPS=177564
		177566			TPB=177566
		002000			.=2000
					
	002000	000005			START:	RESET
	002002	005067	000304			CLR TWOFLG
	002006	005067	000302			CLR CNTFLG
	002012	005067	000300			CLR RUBOUT
	002016	005067	000276			CLR RUBOT1
	002022	012701	002324			MOV #BUF1,R1
	002026	012702	002324			MOV #BUF1,R2
	002032	012767	000001	000262		MOV #1,FINFLG
	002040	012706	002000			MOV #START,SP
					
	002044	105767	173540		LOOP1:	TSTB TKS
	002050	100005				BPL LOOP
	002052	016721	173534			MOV TKB,(R1)+
	002056	100001				BPL 3$
	002060	000000				HALT
	002062	000770			3$:	BR LOOP1
	002064	005767	000232		LOOP:	TST FINFLG
	002070	001432				BEQ LOOP2
	002072	020102				CMP R1,R2
	002074	001763				BEQ LOOP1
	002076	012200				MOV (R2)+,R0
	002100	005067	000216			CLR FINFLG
	002104	032700	000200			BIT #200,R0
	002110	001404				BEQ 1$
	002112	042700	000200			BIC #200,R0
	002116	005267	000170			INC TWOFLG
	002122	032700	000140		1$:	BIT #140,R0
	002126	001004				BNE 2$
	002130	052700	000100			BIS #100,R0
	002134	005267	000154			INC CNTFLG
	002140	122700	000177		2$:	CMPB #177,R0
	002144	001004				BNE LOOP2
	002146	005267	000144			INC RUBOUT
	002152	005267	000142			INC RUBOT1
					
	002156	105767	175402		LOOP2:	TSTB TPS
	002162	100330				BPL LOOP1
	002164	005767	000122			TST TWOFLG
	002170	001406				BEQ 1$
	PALX 240	02/19/77  14:33:23	PAGE 2
	GLPT;ECHO 8	PAGE 1.1 	

	002172	012767	000045	175366		MOV #45,TPB		;% prefix for 200 codes
	002200	005067	000106			CLR TWOFLG
	002204	000764				BR LOOP2
	002206	005767	000102		1$:	TST CNTFLG
	002212	001406				BEQ 2$
	002214	012767	000136	175344		MOV #136,TPB		;^ prefix for control chars
	002222	005067	000066			CLR CNTFLG
	002226	000753				BR LOOP2
	002230	005767	000062		2$:	TST RUBOUT
	002234	001406				BEQ 3$
	002236	012767	000136	175322		MOV #136,TPB		;^? for rubout
	002244	005067	000046			CLR RUBOUT
	002250	000742				BR LOOP2
	002252	005767	000042		3$:	TST RUBOT1
	002256	001410				BEQ 4$
	002260	012767	000077	175300		MOV #77,TPB
	002266	005067	000026			CLR RUBOT1
	002272	005267	000024			INC FINFLG
	002276	000662				BR LOOP1
	002300	010067	175262		4$:	MOV R0,TPB
	002304	005267	000012			INC FINFLG
	002310	000655				BR LOOP1
					
	002312	000000			TWOFLG:	.WORD 0
	002314	000000			CNTFLG:	.WORD 0
	002316	000000			RUBOUT:	.WORD 0
	002320	000000			RUBOT1:	.WORD 0
	002322	000000			FINFLG:	.WORD 0
		004324			BUF1:	.BLKW 1000
					
		002000				.END START
	PALX 240	02/19/77  14:33:23	PAGE 3
	GLPT;ECHO 8	PAGE 1 	***SYMBOL TABLE***      

	BUF1	002324	
	CNTFLG	002314	
	FINFLG	002322	
	LOOP	002064	
	LOOP1	002044	
	LOOP2	002156	
	PC	000007R	
	R0	000000R	
	R1	000001R	
	R2	000002R	
	R3	000003R	
	R4	000004R	
	R5	000005R	
	RUBOT1	002320	
	RUBOUT	002316	
	SP	000006R	
	START	002000	
	TKB	175612	
	TKS	175610	
	TPB	177566	
	TPS	177564	
	TWOFLG	002312	

1.7 WDS AVG INSN LENGTH

0 SECONDS RUN-TIME
